; Function Attrs: mustprogress nofree norecurse nosync nounwind willreturn memory(none) uwtable
define dso_local noundef range(i32 302, 701) i32 @_ZN4llvm5RTLIB8getFREXPENS_3EVTE(i16 %0, ptr nocapture readnone %1) local_unnamed_addr #2 {
_ZN4llvm5RTLIB12getFPLibCallENS_3EVTENS0_7LibcallES2_S2_S2_S2_.exit:
  %switch.tableidx = add i16 %0, -12
  %2 = icmp ult i16 %switch.tableidx, 5
  %switch.idx.cast = zext i16 %switch.tableidx to i32
  %switch.offset = add nuw nsw i32 %switch.idx.cast, 302
  %3 = select i1 %2, i32 %switch.offset, i32 700
  ret i32 %3
}